target datalayout = "e-m:e-p270:32:32-p271:32:32-p272:64:64-i64:64-i128:128-f80:128-n8:16:32:64-S128"
target triple = "x86_64-pc-linux-gnu"

%class.QString = type { %struct.QArrayDataPointer }
%struct.QArrayDataPointer = type { ptr, ptr, i64 }
%class.QLineEdit = type { %class.QWidget }
%class.QWidget = type { %class.QObject, %class.QPaintDevice.base, ptr }
%class.QObject = type { ptr, %class.QScopedPointer }
%class.QScopedPointer = type { ptr }
%class.QPaintDevice.base = type <{ ptr, i16 }>
%class.SyntaxLineEdit = type <{ %class.QLineEdit, ptr, ptr, i32, [4 x i8], %class.QString, %class.QString, %class.QString, %class.QString, %class.QString, i8, [7 x i8] }>

; Function Attrs: mustprogress nounwind null_pointer_is_valid sspstrong uwtable
define linkonce_odr noundef i32 @_ZNK14SyntaxLineEdit11syntaxStateEv(ptr noundef align 8 dereferenceable_or_null(185) %0) #6 comdat align 2 {
  %2 = alloca ptr, align 8
  store ptr %0, ptr %2, align 8
  %3 = load ptr, ptr %2, align 8
  %4 = getelementptr inbounds nuw %class.SyntaxLineEdit, ptr %3, i32 0, i32 3
  %5 = load i32, ptr %4, align 8
  ret i32 %5
}

; Function Attrs: mustprogress null_pointer_is_valid sspstrong uwtable
define void @_ZN17CaptureFilterEdit18applyCaptureFilterEv(ptr noundef align 8 dereferenceable_or_null(288) %0) #7 align 2 {
  %2 = alloca ptr, align 8
  store ptr %0, ptr %2, align 8
  %3 = load ptr, ptr %2, align 8
  %4 = call noundef i32 @_ZNK14SyntaxLineEdit11syntaxStateEv(ptr noundef align 8 dereferenceable_or_null(185) %3)
  %5 = icmp eq i32 %4, 2
  br i1 %5, label %6, label %7

6:                                                ; preds = %1
  br label %8

7:                                                ; preds = %1
  call void @_ZN17CaptureFilterEdit12startCaptureEv(ptr noundef align 8 dereferenceable_or_null(288) %3)
  br label %8

8:                                                ; preds = %7, %6
  ret void
}