; Function Attrs: mustprogress null_pointer_is_valid sspstrong uwtable
define void @_ZN17CaptureFilterEdit18applyCaptureFilterEv(ptr noundef align 8 dereferenceable_or_null(288) %0) #5 align 2 {
  %2 = getelementptr inbounds nuw i8, ptr %0, i64 56
  %3 = load i32, ptr %2, align 8
  %4 = icmp eq i32 %3, 2
  br i1 %4, label %6, label %5

5:                                                ; preds = %1
  tail call void @_ZN17CaptureFilterEdit12startCaptureEv(ptr noundef align 8 dereferenceable_or_null(288) %0)
  br label %6

6:                                                ; preds = %1, %5
  ret void
}